target datalayout = "e-m:e-p270:32:32-p271:32:32-p272:64:64-i64:64-i128:128-f80:128-n8:16:32:64-S128"
target triple = "x86_64-pc-linux-gnu"

%struct.timeval = type { i64, i64 }

@last_resv_update = dso_local global i64 0, align 8
@resv_list = dso_local global ptr null, align 8
@reservation_update_groups.last_update_time = internal global i64 0, align 8
@.str.101 = private unnamed_addr constant [47 x i8] c"Updating reservations group's uid access lists\00", align 1
@.str.102 = private unnamed_addr constant [50 x i8] c"%s: list updated, resetting last_resv_update time\00", align 1
@__func__.reservation_update_groups = private unnamed_addr constant [26 x i8] c"reservation_update_groups\00", align 1

; Function Attrs: nounwind uwtable
define dso_local void @reservation_update_groups(i32 noundef %0) #0 {
  %2 = alloca i32, align 4
  %3 = alloca i32, align 4
  %4 = alloca i64, align 8
  %5 = alloca %struct.timeval, align 8
  %6 = alloca %struct.timeval, align 8
  %7 = alloca [20 x i8], align 16
  %8 = alloca i64, align 8
  %9 = alloca i32, align 4
  store i32 %0, ptr %2, align 4
  call void @llvm.lifetime.start.p0(i64 4, ptr %3) #10
  store i32 0, ptr %3, align 4
  call void @llvm.lifetime.start.p0(i64 8, ptr %4) #10
  call void @llvm.lifetime.start.p0(i64 16, ptr %5) #10
  call void @llvm.lifetime.start.p0(i64 16, ptr %6) #10
  call void @llvm.lifetime.start.p0(i64 20, ptr %7) #10
  call void @llvm.memset.p0.i64(ptr align 16 %7, i8 0, i64 20, i1 false)
  call void @llvm.lifetime.start.p0(i64 8, ptr %8) #10
  %10 = call i32 @gettimeofday(ptr noundef %5, ptr noundef null) #10
  %11 = call i64 @get_group_tlm()
  store i64 %11, ptr %4, align 8
  %12 = load i32, ptr %2, align 4
  %13 = icmp ne i32 %12, 0
  br i1 %13, label %19, label %14

14:                                               ; preds = %1
  %15 = load i64, ptr %4, align 8
  %16 = load i64, ptr @reservation_update_groups.last_update_time, align 8
  %17 = icmp eq i64 %15, %16
  br i1 %17, label %18, label %19

18:                                               ; preds = %14
  store i32 1, ptr %9, align 4
  br label %53

19:                                               ; preds = %14, %1
  br label %20

20:                                               ; preds = %19
  br label %21

21:                                               ; preds = %20
  %22 = call i32 @get_log_level()
  %23 = icmp sge i32 %22, 6
  br i1 %23, label %24, label %25

24:                                               ; preds = %21
  call void (i32, ptr, ...) @log_var(i32 noundef 6, ptr noundef @.str.101)
  br label %25

25:                                               ; preds = %24, %21
  br label %26

26:                                               ; preds = %25
  br label %27

27:                                               ; preds = %26
  br label %28

28:                                               ; preds = %27
  br label %29

29:                                               ; preds = %28
  %30 = load i64, ptr %4, align 8
  store i64 %30, ptr @reservation_update_groups.last_update_time, align 8
  %31 = load ptr, ptr @resv_list, align 8
  %32 = call i32 @list_for_each(ptr noundef %31, ptr noundef @_update_resv_group_uid_access_list, ptr noundef %3)
  %33 = load i32, ptr %3, align 4
  %34 = icmp ne i32 %33, 0
  br i1 %34, label %35, label %47

35:                                               ; preds = %29
  br label %36

36:                                               ; preds = %35
  br label %37

37:                                               ; preds = %36
  %38 = call i32 @get_log_level()
  %39 = icmp sge i32 %38, 6
  br i1 %39, label %40, label %41

40:                                               ; preds = %37
  call void (i32, ptr, ...) @log_var(i32 noundef 6, ptr noundef @.str.102, ptr noundef @__func__.reservation_update_groups)
  br label %41

41:                                               ; preds = %40, %37
  br label %42

42:                                               ; preds = %41
  br label %43

43:                                               ; preds = %42
  br label %44

44:                                               ; preds = %43
  br label %45

45:                                               ; preds = %44
  %46 = call i64 @time(ptr noundef null) #10
  store i64 %46, ptr @last_resv_update, align 8
  br label %47

47:                                               ; preds = %45, %29
  br label %48

48:                                               ; preds = %47
  %49 = call i32 @gettimeofday(ptr noundef %6, ptr noundef null) #10
  %50 = getelementptr inbounds [20 x i8], ptr %7, i64 0, i64 0
  call void @slurm_diff_tv_str(ptr noundef %5, ptr noundef %6, ptr noundef %50, i32 noundef 20, ptr noundef @__func__.reservation_update_groups, i64 noundef 0, ptr noundef %8)
  br label %51

51:                                               ; preds = %48
  br label %52

52:                                               ; preds = %51
  store i32 0, ptr %9, align 4
  br label %53

53:                                               ; preds = %52, %18
  call void @llvm.lifetime.end.p0(i64 8, ptr %8) #10
  call void @llvm.lifetime.end.p0(i64 20, ptr %7) #10
  call void @llvm.lifetime.end.p0(i64 16, ptr %6) #10
  call void @llvm.lifetime.end.p0(i64 16, ptr %5) #10
  call void @llvm.lifetime.end.p0(i64 8, ptr %4) #10
  call void @llvm.lifetime.end.p0(i64 4, ptr %3) #10
  %54 = load i32, ptr %9, align 4
  switch i32 %54, label %56 [
    i32 0, label %55
    i32 1, label %55
  ]

55:                                               ; preds = %53, %53
  ret void

56:                                               ; preds = %53
  unreachable
}