; Function Attrs: nounwind uwtable
define dso_local void @reservation_update_groups(i32 noundef %0) local_unnamed_addr #0 {
  %2 = alloca i32, align 4
  %3 = alloca %struct.timeval, align 8
  %4 = alloca %struct.timeval, align 8
  %5 = alloca [20 x i8], align 16
  %6 = alloca i64, align 8
  call void @llvm.lifetime.start.p0(i64 4, ptr nonnull %2) #19
  store i32 0, ptr %2, align 4
  call void @llvm.lifetime.start.p0(i64 16, ptr nonnull %3) #19
  call void @llvm.lifetime.start.p0(i64 16, ptr nonnull %4) #19
  call void @llvm.lifetime.start.p0(i64 20, ptr nonnull %5) #19
  call void @llvm.memset.p0.i64(ptr noundef nonnull align 16 dereferenceable(20) %5, i8 0, i64 20, i1 false)
  call void @llvm.lifetime.start.p0(i64 8, ptr nonnull %6) #19
  %7 = call i32 @gettimeofday(ptr noundef nonnull %3, ptr noundef null) #19
  %8 = tail call i64 @get_group_tlm() #19
  %.not = icmp eq i32 %0, 0
  %9 = load i64, ptr @reservation_update_groups.last_update_time, align 8
  %10 = icmp eq i64 %8, %9
  %or.cond = select i1 %.not, i1 %10, i1 false
  br i1 %or.cond, label %27, label %11

11:                                               ; preds = %1
  %12 = tail call i32 @get_log_level() #19
  %13 = icmp sgt i32 %12, 5
  br i1 %13, label %14, label %15

14:                                               ; preds = %11
  tail call void (i32, ptr, ...) @log_var(i32 noundef 6, ptr noundef nonnull @.str.101) #19
  br label %15

15:                                               ; preds = %14, %11
  store i64 %8, ptr @reservation_update_groups.last_update_time, align 8
  %16 = load ptr, ptr @resv_list, align 8
  %17 = call i32 @list_for_each(ptr noundef %16, ptr noundef nonnull @_update_resv_group_uid_access_list, ptr noundef nonnull %2) #19
  %18 = load i32, ptr %2, align 4
  %.not3 = icmp eq i32 %18, 0
  br i1 %.not3, label %25, label %19

19:                                               ; preds = %15
  %20 = call i32 @get_log_level() #19
  %21 = icmp sgt i32 %20, 5
  br i1 %21, label %22, label %23

22:                                               ; preds = %19
  call void (i32, ptr, ...) @log_var(i32 noundef 6, ptr noundef nonnull @.str.102, ptr noundef nonnull @__func__.reservation_update_groups) #19
  br label %23

23:                                               ; preds = %22, %19
  %24 = call i64 @time(ptr noundef null) #19
  store i64 %24, ptr @last_resv_update, align 8
  br label %25

25:                                               ; preds = %15, %23
  %26 = call i32 @gettimeofday(ptr noundef nonnull %4, ptr noundef null) #19
  call void @slurm_diff_tv_str(ptr noundef nonnull %3, ptr noundef nonnull %4, ptr noundef nonnull %5, i32 noundef 20, ptr noundef nonnull @__func__.reservation_update_groups, i64 noundef 0, ptr noundef nonnull %6) #19
  br label %27

27:                                               ; preds = %1, %25
  call void @llvm.lifetime.end.p0(i64 8, ptr nonnull %6) #19
  call void @llvm.lifetime.end.p0(i64 20, ptr nonnull %5) #19
  call void @llvm.lifetime.end.p0(i64 16, ptr nonnull %4) #19
  call void @llvm.lifetime.end.p0(i64 16, ptr nonnull %3) #19
  call void @llvm.lifetime.end.p0(i64 4, ptr nonnull %2) #19
  ret void
}